; Function Attrs: mustprogress uwtable
define void @_Z13low_rmsd_distPKcfiPPfPK16gmx_output_env_t(ptr noundef %0, float noundef %1, i32 noundef %2, ptr nocapture noundef readonly %3, ptr noundef %4) local_unnamed_addr #0 personality ptr @__gxx_personality_v0 {
  %6 = alloca ptr, align 8
  %7 = alloca %"class.std::filesystem::__cxx11::path", align 8
  %8 = alloca %"class.std::__cxx11::basic_string", align 8
  %9 = alloca %"class.std::allocator", align 1
  %10 = alloca %"class.std::__cxx11::basic_string", align 8
  %11 = alloca %"class.std::allocator", align 1
  store ptr %0, ptr %6, align 8
  %12 = fdiv float 1.000000e+02, %1
  %13 = tail call noundef ptr @_Z11save_callocPKcS0_imm(ptr noundef nonnull @.str.8, ptr noundef nonnull @.str.1, i32 noundef 163, i64 noundef 101, i64 noundef 4)
  %14 = icmp sgt i32 %2, 0
  br i1 %14, label %.lr.ph42.preheader, label %._crit_edge

.lr.ph42.preheader:                               ; preds = %5
  %15 = zext nneg i32 %2 to i64
  %wide.trip.count50 = zext nneg i32 %2 to i64
  br label %.lr.ph42

.loopexit:                                        ; preds = %31, %.lr.ph42
  %indvars.iv.next = add nuw nsw i64 %indvars.iv, 1
  %exitcond51.not = icmp eq i64 %indvars.iv.next48, %wide.trip.count50
  br i1 %exitcond51.not, label %._crit_edge, label %.lr.ph42, !llvm.loop !11

.lr.ph42:                                         ; preds = %.lr.ph42.preheader, %.loopexit
  %indvars.iv47 = phi i64 [ 0, %.lr.ph42.preheader ], [ %indvars.iv.next48, %.loopexit ]
  %indvars.iv = phi i64 [ 1, %.lr.ph42.preheader ], [ %indvars.iv.next, %.loopexit ]
  %indvars.iv.next48 = add nuw nsw i64 %indvars.iv47, 1
  %16 = icmp ult i64 %indvars.iv.next48, %15
  br i1 %16, label %.lr.ph, label %.loopexit

.lr.ph:                                           ; preds = %.lr.ph42
  %17 = getelementptr inbounds ptr, ptr %3, i64 %indvars.iv47
  br label %18

18:                                               ; preds = %.lr.ph, %31
  %indvars.iv44 = phi i64 [ %indvars.iv, %.lr.ph ], [ %indvars.iv.next45, %31 ]
  %19 = load ptr, ptr %17, align 8
  %20 = getelementptr inbounds float, ptr %19, i64 %indvars.iv44
  %21 = load float, ptr %20, align 4
  %22 = fmul float %12, %21
  %23 = tail call float @llvm.rint.f32(float %22)
  %24 = fptosi float %23 to i32
  %25 = icmp slt i32 %24, 101
  br i1 %25, label %26, label %31

26:                                               ; preds = %18
  %27 = sext i32 %24 to i64
  %28 = getelementptr inbounds i32, ptr %13, i64 %27
  %29 = load i32, ptr %28, align 4
  %30 = add nsw i32 %29, 1
  store i32 %30, ptr %28, align 4
  br label %31

31:                                               ; preds = %18, %26
  %indvars.iv.next45 = add nuw nsw i64 %indvars.iv44, 1
  %exitcond.not = icmp eq i64 %indvars.iv.next45, %wide.trip.count50
  br i1 %exitcond.not, label %.loopexit, label %18, !llvm.loop !12

._crit_edge:                                      ; preds = %.loopexit, %5
  call void @_ZNSt10filesystem7__cxx114pathC2IPKcS1_EERKT_NS1_6formatE(ptr noundef nonnull align 8 dereferenceable(40) %7, ptr noundef nonnull align 8 dereferenceable(8) %6, i8 noundef zeroext 2)
  call void @_ZNSaIcEC1Ev(ptr noundef nonnull align 1 dereferenceable(1) %9) #16
  %32 = invoke noundef ptr @_ZNSt7__cxx1112basic_stringIcSt11char_traitsIcESaIcEE13_M_local_dataEv(ptr noundef nonnull align 8 dereferenceable(32) %8)
          to label %.noexc unwind label %51

.noexc:                                           ; preds = %._crit_edge
  invoke void @_ZNSt7__cxx1112basic_stringIcSt11char_traitsIcESaIcEE12_Alloc_hiderC1EPcRKS3_(ptr noundef nonnull align 8 dereferenceable(8) %8, ptr noundef %32, ptr noundef nonnull align 1 dereferenceable(1) %9)
          to label %.noexc32 unwind label %51

.noexc32:                                         ; preds = %.noexc
  invoke void @_ZNSt7__cxx1112basic_stringIcSt11char_traitsIcESaIcEE12_M_constructIPKcEEvT_S8_St20forward_iterator_tag(ptr noundef nonnull align 8 dereferenceable(32) %8, ptr noundef nonnull @.str.10, ptr noundef nonnull getelementptr inbounds ([9 x i8], ptr @.str.10, i64 0, i64 8))
          to label %_ZNSt7__cxx1112basic_stringIcSt11char_traitsIcESaIcEEC2IS3_EEPKcRKS3_.exit unwind label %33

33:                                               ; preds = %.noexc32
  %34 = landingpad { ptr, i32 }
          cleanup
  call void @_ZNSaIcED2Ev(ptr noundef nonnull align 1 dereferenceable(1) %8) #16
  br label %.body

_ZNSt7__cxx1112basic_stringIcSt11char_traitsIcESaIcEEC2IS3_EEPKcRKS3_.exit: ; preds = %.noexc32
  call void @_ZNSaIcEC1Ev(ptr noundef nonnull align 1 dereferenceable(1) %11) #16
  %35 = invoke noundef ptr @_ZNSt7__cxx1112basic_stringIcSt11char_traitsIcESaIcEE13_M_local_dataEv(ptr noundef nonnull align 8 dereferenceable(32) %10)
          to label %.noexc33 unwind label %53

.noexc33:                                         ; preds = %_ZNSt7__cxx1112basic_stringIcSt11char_traitsIcESaIcEEC2IS3_EEPKcRKS3_.exit
  invoke void @_ZNSt7__cxx1112basic_stringIcSt11char_traitsIcESaIcEE12_Alloc_hiderC1EPcRKS3_(ptr noundef nonnull align 8 dereferenceable(8) %10, ptr noundef %35, ptr noundef nonnull align 1 dereferenceable(1) %11)
          to label %.noexc34 unwind label %53

.noexc34:                                         ; preds = %.noexc33
  invoke void @_ZNSt7__cxx1112basic_stringIcSt11char_traitsIcESaIcEE12_M_constructIPKcEEvT_S8_St20forward_iterator_tag(ptr noundef nonnull align 8 dereferenceable(32) %10, ptr noundef nonnull @.str.11, ptr noundef nonnull getelementptr inbounds ([7 x i8], ptr @.str.11, i64 0, i64 6))
          to label %_ZNSt7__cxx1112basic_stringIcSt11char_traitsIcESaIcEEC2IS3_EEPKcRKS3_.exit37 unwind label %36

36:                                               ; preds = %.noexc34
  %37 = landingpad { ptr, i32 }
          cleanup
  call void @_ZNSaIcED2Ev(ptr noundef nonnull align 1 dereferenceable(1) %10) #16
  br label %.body35

_ZNSt7__cxx1112basic_stringIcSt11char_traitsIcESaIcEEC2IS3_EEPKcRKS3_.exit37: ; preds = %.noexc34
  %38 = invoke noundef ptr @_Z8xvgropenRKNSt10filesystem7__cxx114pathEPKcRKNSt7__cxx1112basic_stringIcSt11char_traitsIcESaIcEEESD_PK16gmx_output_env_t(ptr noundef nonnull align 8 dereferenceable(40) %7, ptr noundef nonnull @.str.9, ptr noundef nonnull align 8 dereferenceable(32) %8, ptr noundef nonnull align 8 dereferenceable(32) %10, ptr noundef %4)
          to label %39 unwind label %55

39:                                               ; preds = %_ZNSt7__cxx1112basic_stringIcSt11char_traitsIcESaIcEEC2IS3_EEPKcRKS3_.exit37
  call void @_ZNSt7__cxx1112basic_stringIcSt11char_traitsIcESaIcEED1Ev(ptr noundef nonnull align 8 dereferenceable(32) %10) #16
  call void @_ZNSaIcED1Ev(ptr noundef nonnull align 1 dereferenceable(1) %11) #16
  call void @_ZNSt7__cxx1112basic_stringIcSt11char_traitsIcESaIcEED1Ev(ptr noundef nonnull align 8 dereferenceable(32) %8) #16
  call void @_ZNSaIcED1Ev(ptr noundef nonnull align 1 dereferenceable(1) %9) #16
  %40 = getelementptr inbounds i8, ptr %7, i64 32
  %41 = load ptr, ptr %40, align 8
  %.not.i.i.i = icmp eq ptr %41, null
  br i1 %.not.i.i.i, label %_ZNSt10filesystem7__cxx114pathD2Ev.exit, label %42

42:                                               ; preds = %39
  call void @_ZNKSt10filesystem7__cxx114path5_List13_Impl_deleterclEPNS2_5_ImplE(ptr noundef nonnull align 1 dereferenceable(1) %40, ptr noundef nonnull %41) #16
  br label %_ZNSt10filesystem7__cxx114pathD2Ev.exit

_ZNSt10filesystem7__cxx114pathD2Ev.exit:          ; preds = %39, %42
  store ptr null, ptr %40, align 8
  call void @_ZNSt7__cxx1112basic_stringIcSt11char_traitsIcESaIcEED1Ev(ptr noundef nonnull align 8 dereferenceable(32) %7) #16
  br label %43

43:                                               ; preds = %_ZNSt10filesystem7__cxx114pathD2Ev.exit, %43
  %indvars.iv52 = phi i64 [ 0, %_ZNSt10filesystem7__cxx114pathD2Ev.exit ], [ %indvars.iv.next53, %43 ]
  %44 = trunc nuw nsw i64 %indvars.iv52 to i32
  %45 = uitofp nneg i32 %44 to float
  %46 = fdiv float %45, %12
  %47 = fpext float %46 to double
  %48 = getelementptr inbounds i32, ptr %13, i64 %indvars.iv52
  %49 = load i32, ptr %48, align 4
  %50 = call i32 (ptr, ptr, ...) @fprintf(ptr noundef %38, ptr noundef nonnull @.str.12, double noundef %47, i32 noundef %49) #16
  %indvars.iv.next53 = add nuw nsw i64 %indvars.iv52, 1
  %exitcond55.not = icmp eq i64 %indvars.iv.next53, 101
  br i1 %exitcond55.not, label %57, label %43, !llvm.loop !13

51:                                               ; preds = %.noexc, %._crit_edge
  %52 = landingpad { ptr, i32 }
          cleanup
  br label %.body

53:                                               ; preds = %.noexc33, %_ZNSt7__cxx1112basic_stringIcSt11char_traitsIcESaIcEEC2IS3_EEPKcRKS3_.exit
  %54 = landingpad { ptr, i32 }
          cleanup
  br label %.body35

55:                                               ; preds = %_ZNSt7__cxx1112basic_stringIcSt11char_traitsIcESaIcEEC2IS3_EEPKcRKS3_.exit37
  %56 = landingpad { ptr, i32 }
          cleanup
  call void @_ZNSt7__cxx1112basic_stringIcSt11char_traitsIcESaIcEED1Ev(ptr noundef nonnull align 8 dereferenceable(32) %10) #16
  br label %.body35

.body35:                                          ; preds = %53, %36, %55
  %.pn = phi { ptr, i32 } [ %56, %55 ], [ %54, %53 ], [ %37, %36 ]
  call void @_ZNSaIcED1Ev(ptr noundef nonnull align 1 dereferenceable(1) %11) #16
  call void @_ZNSt7__cxx1112basic_stringIcSt11char_traitsIcESaIcEED1Ev(ptr noundef nonnull align 8 dereferenceable(32) %8) #16
  br label %.body

.body:                                            ; preds = %51, %33, %.body35
  %.pn.pn = phi { ptr, i32 } [ %.pn, %.body35 ], [ %52, %51 ], [ %34, %33 ]
  call void @_ZNSaIcED1Ev(ptr noundef nonnull align 1 dereferenceable(1) %9) #16
  call void @_ZNSt10filesystem7__cxx114pathD2Ev(ptr noundef nonnull align 8 dereferenceable(40) %7) #16
  resume { ptr, i32 } %.pn.pn

57:                                               ; preds = %43
  call void @_Z9xvgrcloseP8_IO_FILE(ptr noundef %38)
  call void @_Z9save_freePKcS0_iPv(ptr noundef nonnull @.str.8, ptr noundef nonnull @.str.1, i32 noundef 182, ptr noundef nonnull %13)
  ret void
}